; Function Attrs: nounwind uwtable
define noalias ptr @png_create_png_struct(ptr noundef %0, ptr noundef %1, ptr noundef %2, ptr noundef %3, ptr noundef %4, ptr noundef %5, ptr noundef %6) local_unnamed_addr #0 {
  %8 = alloca %struct.png_struct_def, align 8
  %9 = alloca [1 x %struct.__jmp_buf_tag], align 16
  call void @llvm.memset.p0.i64(ptr noundef nonnull align 8 dereferenceable(1264) %8, i8 0, i64 1264, i1 false)
  %10 = getelementptr inbounds i8, ptr %8, i64 1060
  store i32 1000000, ptr %10, align 4
  %11 = getelementptr inbounds i8, ptr %8, i64 1064
  store i32 1000000, ptr %11, align 8
  %12 = getelementptr inbounds i8, ptr %8, i64 1068
  store i32 1000, ptr %12, align 4
  %13 = getelementptr inbounds i8, ptr %8, i64 1072
  store i64 8000000, ptr %13, align 8
  call void @png_set_mem_fn(ptr noundef nonnull %8, ptr noundef %4, ptr noundef %5, ptr noundef %6) #29
  call void @png_set_error_fn(ptr noundef nonnull %8, ptr noundef %1, ptr noundef %2, ptr noundef %3) #29
  %14 = call i32 @_setjmp(ptr noundef nonnull %9) #30
  %.not = icmp eq i32 %14, 0
  br i1 %.not, label %15, label %26

15:                                               ; preds = %7
  %16 = getelementptr inbounds i8, ptr %8, i64 208
  store ptr %9, ptr %16, align 8
  %17 = getelementptr inbounds i8, ptr %8, i64 216
  store i64 0, ptr %17, align 8
  %18 = getelementptr inbounds i8, ptr %8, i64 200
  store ptr @longjmp, ptr %18, align 8
  %19 = call i32 @png_user_version_check(ptr noundef nonnull %8, ptr noundef %0)
  %.not13 = icmp eq i32 %19, 0
  br i1 %.not13, label %26, label %20

20:                                               ; preds = %15
  %21 = call noalias ptr @png_malloc_warn(ptr noundef nonnull %8, i64 noundef 1264) #29
  %.not14 = icmp eq ptr %21, null
  br i1 %.not14, label %26, label %22

22:                                               ; preds = %20
  %23 = getelementptr inbounds i8, ptr %8, i64 384
  store ptr @png_zalloc, ptr %23, align 8
  %24 = getelementptr inbounds i8, ptr %8, i64 392
  store ptr @png_zfree, ptr %24, align 8
  %25 = getelementptr inbounds i8, ptr %8, i64 400
  store ptr %21, ptr %25, align 8
  call void @llvm.memset.p0.i64(ptr noundef nonnull align 8 dereferenceable(24) %18, i8 0, i64 24, i1 false)
  call void @llvm.memcpy.p0.p0.i64(ptr noundef nonnull align 8 dereferenceable(1264) %21, ptr noundef nonnull align 8 dereferenceable(1264) %8, i64 1264, i1 false)
  br label %26

26:                                               ; preds = %7, %20, %15, %22
  %.0 = phi ptr [ %21, %22 ], [ null, %15 ], [ null, %20 ], [ null, %7 ]
  ret ptr %.0
}